target datalayout = "e-m:e-p270:32:32-p271:32:32-p272:64:64-i64:64-i128:128-f80:128-n8:16:32:64-S128"
target triple = "x86_64-pc-linux-gnu"

%struct.LogicalRepPreparedTxnData = type { i64, i64, i64, i32, [200 x i8] }

@.str.1 = private unnamed_addr constant [8 x i8] c"proto.c\00", align 1
@.str.3 = private unnamed_addr constant [45 x i8] c"prepare_lsn not set in begin prepare message\00", align 1
@__func__.logicalrep_read_begin_prepare = private unnamed_addr constant [30 x i8] c"logicalrep_read_begin_prepare\00", align 1
@.str.4 = private unnamed_addr constant [41 x i8] c"end_lsn not set in begin prepare message\00", align 1

; Function Attrs: nounwind uwtable
define dso_local void @logicalrep_read_begin_prepare(ptr noundef %0, ptr noundef %1) #0 {
  %3 = alloca ptr, align 8
  %4 = alloca ptr, align 8
  store ptr %0, ptr %3, align 8
  store ptr %1, ptr %4, align 8
  %5 = load ptr, ptr %3, align 8
  %6 = call i64 @pq_getmsgint64(ptr noundef %5)
  %7 = load ptr, ptr %4, align 8
  %8 = getelementptr inbounds nuw %struct.LogicalRepPreparedTxnData, ptr %7, i32 0, i32 0
  store i64 %6, ptr %8, align 8
  %9 = load ptr, ptr %4, align 8
  %10 = getelementptr inbounds nuw %struct.LogicalRepPreparedTxnData, ptr %9, i32 0, i32 0
  %11 = load i64, ptr %10, align 8
  %12 = icmp eq i64 %11, 0
  br i1 %12, label %13, label %23

13:                                               ; preds = %2
  br label %14

14:                                               ; preds = %13
  br i1 true, label %15, label %17

15:                                               ; preds = %14
  %16 = call zeroext i1 @errstart_cold(i32 noundef 21, ptr noundef null) #8
  br i1 %16, label %19, label %21

17:                                               ; preds = %14
  %18 = call zeroext i1 @errstart(i32 noundef 21, ptr noundef null)
  br i1 %18, label %19, label %21

19:                                               ; preds = %17, %15
  %20 = call i32 (ptr, ...) @errmsg_internal(ptr noundef @.str.3)
  call void @errfinish(ptr noundef @.str.1, i32 noundef 139, ptr noundef @__func__.logicalrep_read_begin_prepare)
  br label %21

21:                                               ; preds = %19, %17, %15
  unreachable

22:                                               ; No predecessors!
  br label %23

23:                                               ; preds = %22, %2
  %24 = load ptr, ptr %3, align 8
  %25 = call i64 @pq_getmsgint64(ptr noundef %24)
  %26 = load ptr, ptr %4, align 8
  %27 = getelementptr inbounds nuw %struct.LogicalRepPreparedTxnData, ptr %26, i32 0, i32 1
  store i64 %25, ptr %27, align 8
  %28 = load ptr, ptr %4, align 8
  %29 = getelementptr inbounds nuw %struct.LogicalRepPreparedTxnData, ptr %28, i32 0, i32 1
  %30 = load i64, ptr %29, align 8
  %31 = icmp eq i64 %30, 0
  br i1 %31, label %32, label %42

32:                                               ; preds = %23
  br label %33

33:                                               ; preds = %32
  br i1 true, label %34, label %36

34:                                               ; preds = %33
  %35 = call zeroext i1 @errstart_cold(i32 noundef 21, ptr noundef null) #8
  br i1 %35, label %38, label %40

36:                                               ; preds = %33
  %37 = call zeroext i1 @errstart(i32 noundef 21, ptr noundef null)
  br i1 %37, label %38, label %40

38:                                               ; preds = %36, %34
  %39 = call i32 (ptr, ...) @errmsg_internal(ptr noundef @.str.4)
  call void @errfinish(ptr noundef @.str.1, i32 noundef 142, ptr noundef @__func__.logicalrep_read_begin_prepare)
  br label %40

40:                                               ; preds = %38, %36, %34
  unreachable

41:                                               ; No predecessors!
  br label %42

42:                                               ; preds = %41, %23
  %43 = load ptr, ptr %3, align 8
  %44 = call i64 @pq_getmsgint64(ptr noundef %43)
  %45 = load ptr, ptr %4, align 8
  %46 = getelementptr inbounds nuw %struct.LogicalRepPreparedTxnData, ptr %45, i32 0, i32 2
  store i64 %44, ptr %46, align 8
  %47 = load ptr, ptr %3, align 8
  %48 = call i32 @pq_getmsgint(ptr noundef %47, i32 noundef 4)
  %49 = load ptr, ptr %4, align 8
  %50 = getelementptr inbounds nuw %struct.LogicalRepPreparedTxnData, ptr %49, i32 0, i32 3
  store i32 %48, ptr %50, align 8
  %51 = load ptr, ptr %4, align 8
  %52 = getelementptr inbounds nuw %struct.LogicalRepPreparedTxnData, ptr %51, i32 0, i32 4
  %53 = getelementptr inbounds [200 x i8], ptr %52, i64 0, i64 0
  %54 = load ptr, ptr %3, align 8
  %55 = call ptr @pq_getmsgstring(ptr noundef %54)
  %56 = call i64 @strlcpy(ptr noundef %53, ptr noundef %55, i64 noundef 200)
  ret void
}