; Function Attrs: nounwind uwtable
define dso_local void @logicalrep_read_begin_prepare(ptr noundef %0, ptr noundef initializes((0, 8)) %1) local_unnamed_addr #0 {
  %3 = tail call i64 @pq_getmsgint64(ptr noundef %0) #8
  store i64 %3, ptr %1, align 8
  %4 = icmp eq i64 %3, 0
  br i1 %4, label %5, label %8

5:                                                ; preds = %2
  %6 = tail call zeroext i1 @errstart_cold(i32 noundef 21, ptr noundef null) #9
  tail call void @llvm.assume(i1 %6)
  %7 = tail call i32 (ptr, ...) @errmsg_internal(ptr noundef nonnull @.str.3) #8
  tail call void @errfinish(ptr noundef nonnull @.str.1, i32 noundef 139, ptr noundef nonnull @__func__.logicalrep_read_begin_prepare) #8
  unreachable

8:                                                ; preds = %2
  %9 = tail call i64 @pq_getmsgint64(ptr noundef %0) #8
  %10 = getelementptr inbounds nuw i8, ptr %1, i64 8
  store i64 %9, ptr %10, align 8
  %11 = icmp eq i64 %9, 0
  br i1 %11, label %12, label %15

12:                                               ; preds = %8
  %13 = tail call zeroext i1 @errstart_cold(i32 noundef 21, ptr noundef null) #9
  tail call void @llvm.assume(i1 %13)
  %14 = tail call i32 (ptr, ...) @errmsg_internal(ptr noundef nonnull @.str.4) #8
  tail call void @errfinish(ptr noundef nonnull @.str.1, i32 noundef 142, ptr noundef nonnull @__func__.logicalrep_read_begin_prepare) #8
  unreachable

15:                                               ; preds = %8
  %16 = tail call i64 @pq_getmsgint64(ptr noundef %0) #8
  %17 = getelementptr inbounds nuw i8, ptr %1, i64 16
  store i64 %16, ptr %17, align 8
  %18 = tail call i32 @pq_getmsgint(ptr noundef %0, i32 noundef 4) #8
  %19 = getelementptr inbounds nuw i8, ptr %1, i64 24
  store i32 %18, ptr %19, align 8
  %20 = getelementptr inbounds nuw i8, ptr %1, i64 28
  %21 = tail call ptr @pq_getmsgstring(ptr noundef %0) #8
  %22 = tail call i64 @strlcpy(ptr noundef nonnull dereferenceable(1) %20, ptr noundef nonnull dereferenceable(1) %21, i64 noundef 200) #8
  ret void
}